target datalayout = "e-m:e-p270:32:32-p271:32:32-p272:64:64-i64:64-i128:128-f80:128-n8:16:32:64-S128"
target triple = "x86_64-pc-linux-gnu"

%"class.std::__cxx11::basic_string" = type { %"struct.std::__cxx11::basic_string<char>::_Alloc_hider", i64, %union.anon }
%"struct.std::__cxx11::basic_string<char>::_Alloc_hider" = type { ptr }
%union.anon = type { i64, [8 x i8] }
%"class.std::basic_string_view" = type { i64, ptr }
%class.anon.1043 = type { i8 }
%"class.std::vector.211" = type { %"struct.std::_Vector_base.212" }
%"struct.std::_Vector_base.212" = type { %"struct.std::_Vector_base<std::__cxx11::basic_string<char>, std::allocator<std::__cxx11::basic_string<char>>>::_Vector_impl" }
%"struct.std::_Vector_base<std::__cxx11::basic_string<char>, std::allocator<std::__cxx11::basic_string<char>>>::_Vector_impl" = type { %"struct.std::_Vector_base<std::__cxx11::basic_string<char>, std::allocator<std::__cxx11::basic_string<char>>>::_Vector_impl_data" }
%"struct.std::_Vector_base<std::__cxx11::basic_string<char>, std::allocator<std::__cxx11::basic_string<char>>>::_Vector_impl_data" = type { ptr, ptr, ptr }
%class.cmCommonTargetGenerator = type { ptr, ptr, ptr, ptr, ptr, %"class.std::vector.211", i8, %"class.std::map.216" }
%"class.std::map.216" = type { %"class.std::_Rb_tree.217" }
%"class.std::_Rb_tree.217" = type { %"struct.std::_Rb_tree<std::__cxx11::basic_string<char>, std::pair<const std::__cxx11::basic_string<char>, cmCommonTargetGenerator::ByConfig>, std::_Select1st<std::pair<const std::__cxx11::basic_string<char>, cmCommonTargetGenerator::ByConfig>>, std::less<std::__cxx11::basic_string<char>>>::_Rb_tree_impl" }
%"struct.std::_Rb_tree<std::__cxx11::basic_string<char>, std::pair<const std::__cxx11::basic_string<char>, cmCommonTargetGenerator::ByConfig>, std::_Select1st<std::pair<const std::__cxx11::basic_string<char>, cmCommonTargetGenerator::ByConfig>>, std::less<std::__cxx11::basic_string<char>>>::_Rb_tree_impl" = type { %"struct.std::_Rb_tree_key_compare.10", %"struct.std::_Rb_tree_header" }
%"struct.std::_Rb_tree_key_compare.10" = type { %"struct.std::less.11" }
%"struct.std::less.11" = type { i8 }
%"struct.std::_Rb_tree_header" = type { %"struct.std::_Rb_tree_node_base", i64 }
%"struct.std::_Rb_tree_node_base" = type { i32, ptr, ptr, ptr }
%"class.std::initializer_list.981" = type { ptr, i64 }
%"struct.std::pair.982" = type { %"class.std::basic_string_view", ptr }
%class.cmAlphaNum = type { ptr, %"class.std::basic_string_view", [32 x i8] }

@.str = private unnamed_addr constant [12 x i8] c"_COMPILER__\00", align 1
@.str.2 = private unnamed_addr constant [10 x i8] c"_scanned_\00", align 1
@.str.3 = private unnamed_addr constant [12 x i8] c"_unscanned_\00", align 1
@_ZZ8cmStrCatIRKNSt7__cxx1112basic_stringIcSt11char_traitsIcESaIcEEERA12_KcJS5_PS8_S7_EES5_OT_OT0_DpOT1_E8makePair = linkonce_odr dso_local constant %class.anon.1043 undef, comdat, align 1

; Function Attrs: noreturn nounwind uwtable
define linkonce_odr hidden void @__clang_call_terminate(ptr noundef %0) #9 comdat {
  %2 = call ptr @__cxa_begin_catch(ptr %0) #3
  call void @_ZSt9terminatev() #18
  unreachable
}

; Function Attrs: mustprogress nounwind uwtable
define linkonce_odr dso_local noundef i64 @_ZNSt11char_traitsIcE6lengthEPKc(ptr noundef %0) #5 comdat align 2 {
  %2 = alloca ptr, align 8
  store ptr %0, ptr %2, align 8
  %3 = load ptr, ptr %2, align 8
  %4 = call i64 @strlen(ptr noundef %3) #3
  ret i64 %4
}

; Function Attrs: mustprogress nounwind uwtable
define linkonce_odr dso_local void @_ZNSt17basic_string_viewIcSt11char_traitsIcEEC2Ev(ptr noundef nonnull align 8 dereferenceable(16) %0) unnamed_addr #5 comdat align 2 {
  %2 = alloca ptr, align 8
  store ptr %0, ptr %2, align 8
  %3 = load ptr, ptr %2, align 8
  %4 = getelementptr inbounds %"class.std::basic_string_view", ptr %3, i32 0, i32 0
  store i64 0, ptr %4, align 8
  %5 = getelementptr inbounds %"class.std::basic_string_view", ptr %3, i32 0, i32 1
  store ptr null, ptr %5, align 8
  ret void
}

; Function Attrs: mustprogress nounwind uwtable
define linkonce_odr dso_local void @_ZNSt17basic_string_viewIcSt11char_traitsIcEEC2EPKc(ptr noundef nonnull align 8 dereferenceable(16) %0, ptr noundef nonnull %1) unnamed_addr #5 comdat align 2 personality ptr @__gxx_personality_v0 {
  %3 = alloca ptr, align 8
  %4 = alloca ptr, align 8
  store ptr %0, ptr %3, align 8
  store ptr %1, ptr %4, align 8
  %5 = load ptr, ptr %3, align 8
  %6 = getelementptr inbounds %"class.std::basic_string_view", ptr %5, i32 0, i32 0
  %7 = load ptr, ptr %4, align 8
  %8 = invoke noundef i64 @_ZNSt11char_traitsIcE6lengthEPKc(ptr noundef %7)
          to label %9 unwind label %12

9:                                                ; preds = %2
  store i64 %8, ptr %6, align 8
  %10 = getelementptr inbounds %"class.std::basic_string_view", ptr %5, i32 0, i32 1
  %11 = load ptr, ptr %4, align 8
  store ptr %11, ptr %10, align 8
  ret void

12:                                               ; preds = %2
  %13 = landingpad { ptr, i32 }
          catch ptr null
  %14 = extractvalue { ptr, i32 } %13, 0
  call void @__clang_call_terminate(ptr %14) #18
  unreachable
}

; Function Attrs: mustprogress nounwind uwtable
define linkonce_odr dso_local void @_ZNSt4pairISt17basic_string_viewIcSt11char_traitsIcEEPNSt7__cxx1112basic_stringIcS2_SaIcEEEEC2IS3_S8_TnNSt9enable_ifIXaaclsr5_PCCPE22_MoveConstructiblePairIT_T0_EEclsr5_PCCPE30_ImplicitlyMoveConvertiblePairISC_SD_EEEbE4typeELb1EEEOSC_OSD_(ptr noundef nonnull align 8 dereferenceable(24) %0, ptr noundef nonnull align 8 dereferenceable(16) %1, ptr noundef nonnull align 8 dereferenceable(8) %2) unnamed_addr #5 comdat align 2 {
  %4 = alloca ptr, align 8
  %5 = alloca ptr, align 8
  %6 = alloca ptr, align 8
  store ptr %0, ptr %4, align 8
  store ptr %1, ptr %5, align 8
  store ptr %2, ptr %6, align 8
  %7 = load ptr, ptr %4, align 8
  %8 = getelementptr inbounds %"struct.std::pair.982", ptr %7, i32 0, i32 0
  %9 = load ptr, ptr %5, align 8
  call void @llvm.memcpy.p0.p0.i64(ptr align 8 %8, ptr align 8 %9, i64 16, i1 false)
  %10 = getelementptr inbounds %"struct.std::pair.982", ptr %7, i32 0, i32 1
  %11 = load ptr, ptr %6, align 8
  %12 = load ptr, ptr %11, align 8
  store ptr %12, ptr %10, align 8
  ret void
}

; Function Attrs: mustprogress nounwind uwtable
define linkonce_odr dso_local noundef ptr @_ZNK10cmAlphaNum12RValueStringB5cxx11Ev(ptr noundef nonnull align 8 dereferenceable(56) %0) #5 comdat align 2 {
  %2 = alloca ptr, align 8
  store ptr %0, ptr %2, align 8
  %3 = load ptr, ptr %2, align 8
  %4 = getelementptr inbounds %class.cmAlphaNum, ptr %3, i32 0, i32 0
  %5 = load ptr, ptr %4, align 8
  ret ptr %5
}

; Function Attrs: mustprogress nounwind uwtable
define linkonce_odr dso_local { i64, ptr } @_ZNK10cmAlphaNum4ViewEv(ptr noundef nonnull align 8 dereferenceable(56) %0) #5 comdat align 2 {
  %2 = alloca %"class.std::basic_string_view", align 8
  %3 = alloca ptr, align 8
  store ptr %0, ptr %3, align 8
  %4 = load ptr, ptr %3, align 8
  %5 = getelementptr inbounds %class.cmAlphaNum, ptr %4, i32 0, i32 0
  %6 = load ptr, ptr %5, align 8
  %7 = icmp ne ptr %6, null
  br i1 %7, label %8, label %16

8:                                                ; preds = %1
  %9 = getelementptr inbounds %class.cmAlphaNum, ptr %4, i32 0, i32 0
  %10 = load ptr, ptr %9, align 8
  %11 = call { i64, ptr } @_ZNKSt7__cxx1112basic_stringIcSt11char_traitsIcESaIcEEcvSt17basic_string_viewIcS2_EEv(ptr noundef nonnull align 8 dereferenceable(32) %10) #3
  %12 = getelementptr inbounds { i64, ptr }, ptr %2, i32 0, i32 0
  %13 = extractvalue { i64, ptr } %11, 0
  store i64 %13, ptr %12, align 8
  %14 = getelementptr inbounds { i64, ptr }, ptr %2, i32 0, i32 1
  %15 = extractvalue { i64, ptr } %11, 1
  store ptr %15, ptr %14, align 8
  br label %18

16:                                               ; preds = %1
  %17 = getelementptr inbounds %class.cmAlphaNum, ptr %4, i32 0, i32 1
  call void @llvm.memcpy.p0.p0.i64(ptr align 8 %2, ptr align 8 %17, i64 16, i1 false)
  br label %18

18:                                               ; preds = %16, %8
  %19 = load { i64, ptr }, ptr %2, align 8
  ret { i64, ptr } %19
}

; Function Attrs: mustprogress nounwind uwtable
define linkonce_odr dso_local void @_ZN10cmAlphaNumC2EONSt7__cxx1112basic_stringIcSt11char_traitsIcESaIcEEE(ptr noundef nonnull align 8 dereferenceable(56) %0, ptr noundef nonnull align 8 dereferenceable(32) %1) unnamed_addr #5 comdat align 2 {
  %3 = alloca ptr, align 8
  %4 = alloca ptr, align 8
  store ptr %0, ptr %3, align 8
  store ptr %1, ptr %4, align 8
  %5 = load ptr, ptr %3, align 8
  %6 = getelementptr inbounds %class.cmAlphaNum, ptr %5, i32 0, i32 0
  %7 = load ptr, ptr %4, align 8
  store ptr %7, ptr %6, align 8
  %8 = getelementptr inbounds %class.cmAlphaNum, ptr %5, i32 0, i32 1
  call void @_ZNSt17basic_string_viewIcSt11char_traitsIcEEC2Ev(ptr noundef nonnull align 8 dereferenceable(16) %8) #3
  ret void
}

; Function Attrs: mustprogress nounwind uwtable
define linkonce_odr dso_local void @_ZN10cmAlphaNumC2EPKc(ptr noundef nonnull align 8 dereferenceable(56) %0, ptr noundef %1) unnamed_addr #5 comdat align 2 {
  %3 = alloca ptr, align 8
  %4 = alloca ptr, align 8
  store ptr %0, ptr %3, align 8
  store ptr %1, ptr %4, align 8
  %5 = load ptr, ptr %3, align 8
  %6 = getelementptr inbounds %class.cmAlphaNum, ptr %5, i32 0, i32 0
  store ptr null, ptr %6, align 8
  %7 = getelementptr inbounds %class.cmAlphaNum, ptr %5, i32 0, i32 1
  %8 = load ptr, ptr %4, align 8
  call void @_ZNSt17basic_string_viewIcSt11char_traitsIcEEC2EPKc(ptr noundef nonnull align 8 dereferenceable(16) %7, ptr noundef %8) #3
  ret void
}

; Function Attrs: mustprogress uwtable
define linkonce_odr dso_local void @_ZZ8cmStrCatIRKNSt7__cxx1112basic_stringIcSt11char_traitsIcESaIcEEERA12_KcJS5_PS8_S7_EES5_OT_OT0_DpOT1_ENKUlRK10cmAlphaNumE_clB5cxx11ESL_(ptr dead_on_unwind noalias writable sret(%"struct.std::pair.982") align 8 %0, ptr noundef nonnull align 1 dereferenceable(1) %1, ptr noundef nonnull align 8 dereferenceable(56) %2) #4 comdat align 2 {
  %4 = alloca ptr, align 8
  %5 = alloca ptr, align 8
  %6 = alloca %"class.std::basic_string_view", align 8
  %7 = alloca ptr, align 8
  store ptr %1, ptr %4, align 8
  store ptr %2, ptr %5, align 8
  %8 = load ptr, ptr %5, align 8
  %9 = call { i64, ptr } @_ZNK10cmAlphaNum4ViewEv(ptr noundef nonnull align 8 dereferenceable(56) %8)
  %10 = getelementptr inbounds { i64, ptr }, ptr %6, i32 0, i32 0
  %11 = extractvalue { i64, ptr } %9, 0
  store i64 %11, ptr %10, align 8
  %12 = getelementptr inbounds { i64, ptr }, ptr %6, i32 0, i32 1
  %13 = extractvalue { i64, ptr } %9, 1
  store ptr %13, ptr %12, align 8
  %14 = load ptr, ptr %5, align 8
  %15 = call noundef ptr @_ZNK10cmAlphaNum12RValueStringB5cxx11Ev(ptr noundef nonnull align 8 dereferenceable(56) %14)
  store ptr %15, ptr %7, align 8
  call void @_ZNSt4pairISt17basic_string_viewIcSt11char_traitsIcEEPNSt7__cxx1112basic_stringIcS2_SaIcEEEEC2IS3_S8_TnNSt9enable_ifIXaaclsr5_PCCPE22_MoveConstructiblePairIT_T0_EEclsr5_PCCPE30_ImplicitlyMoveConvertiblePairISC_SD_EEEbE4typeELb1EEEOSC_OSD_(ptr noundef nonnull align 8 dereferenceable(24) %0, ptr noundef nonnull align 8 dereferenceable(16) %6, ptr noundef nonnull align 8 dereferenceable(8) %7)
  ret void
}

; Function Attrs: mustprogress nounwind uwtable
define linkonce_odr dso_local void @_ZN10cmAlphaNumC2ERKNSt7__cxx1112basic_stringIcSt11char_traitsIcESaIcEEE(ptr noundef nonnull align 8 dereferenceable(56) %0, ptr noundef nonnull align 8 dereferenceable(32) %1) unnamed_addr #5 comdat align 2 {
  %3 = alloca ptr, align 8
  %4 = alloca ptr, align 8
  store ptr %0, ptr %3, align 8
  store ptr %1, ptr %4, align 8
  %5 = load ptr, ptr %3, align 8
  %6 = getelementptr inbounds %class.cmAlphaNum, ptr %5, i32 0, i32 0
  store ptr null, ptr %6, align 8
  %7 = getelementptr inbounds %class.cmAlphaNum, ptr %5, i32 0, i32 1
  %8 = load ptr, ptr %4, align 8
  %9 = call { i64, ptr } @_ZNKSt7__cxx1112basic_stringIcSt11char_traitsIcESaIcEEcvSt17basic_string_viewIcS2_EEv(ptr noundef nonnull align 8 dereferenceable(32) %8) #3
  %10 = getelementptr inbounds { i64, ptr }, ptr %7, i32 0, i32 0
  %11 = extractvalue { i64, ptr } %9, 0
  store i64 %11, ptr %10, align 8
  %12 = getelementptr inbounds { i64, ptr }, ptr %7, i32 0, i32 1
  %13 = extractvalue { i64, ptr } %9, 1
  store ptr %13, ptr %12, align 8
  ret void
}

; Function Attrs: mustprogress uwtable
define linkonce_odr dso_local void @_Z8cmStrCatIRKNSt7__cxx1112basic_stringIcSt11char_traitsIcESaIcEEERA12_KcJS5_PS8_S7_EES5_OT_OT0_DpOT1_(ptr dead_on_unwind noalias writable sret(%"class.std::__cxx11::basic_string") align 8 %0, ptr noundef nonnull align 8 dereferenceable(32) %1, ptr noundef nonnull align 1 dereferenceable(12) %2, ptr noundef nonnull align 8 dereferenceable(32) %3, ptr noundef nonnull align 8 dereferenceable(8) %4, ptr noundef nonnull align 8 dereferenceable(32) %5) #4 comdat {
  %7 = alloca ptr, align 8
  %8 = alloca ptr, align 8
  %9 = alloca ptr, align 8
  %10 = alloca ptr, align 8
  %11 = alloca ptr, align 8
  %12 = alloca ptr, align 8
  %13 = alloca %"class.std::initializer_list.981", align 8
  %14 = alloca [5 x %"struct.std::pair.982"], align 8
  %15 = alloca %class.cmAlphaNum, align 8
  %16 = alloca %class.cmAlphaNum, align 8
  %17 = alloca %class.cmAlphaNum, align 8
  %18 = alloca %class.cmAlphaNum, align 8
  %19 = alloca %class.cmAlphaNum, align 8
  store ptr %0, ptr %7, align 8
  store ptr %1, ptr %8, align 8
  store ptr %2, ptr %9, align 8
  store ptr %3, ptr %10, align 8
  store ptr %4, ptr %11, align 8
  store ptr %5, ptr %12, align 8
  %20 = getelementptr inbounds [5 x %"struct.std::pair.982"], ptr %14, i64 0, i64 0
  %21 = load ptr, ptr %8, align 8
  call void @_ZN10cmAlphaNumC2ERKNSt7__cxx1112basic_stringIcSt11char_traitsIcESaIcEEE(ptr noundef nonnull align 8 dereferenceable(56) %15, ptr noundef nonnull align 8 dereferenceable(32) %21)
  call void @_ZZ8cmStrCatIRKNSt7__cxx1112basic_stringIcSt11char_traitsIcESaIcEEERA12_KcJS5_PS8_S7_EES5_OT_OT0_DpOT1_ENKUlRK10cmAlphaNumE_clB5cxx11ESL_(ptr dead_on_unwind writable sret(%"struct.std::pair.982") align 8 %20, ptr noundef nonnull align 1 dereferenceable(1) @_ZZ8cmStrCatIRKNSt7__cxx1112basic_stringIcSt11char_traitsIcESaIcEEERA12_KcJS5_PS8_S7_EES5_OT_OT0_DpOT1_E8makePair, ptr noundef nonnull align 8 dereferenceable(56) %15)
  %22 = getelementptr inbounds %"struct.std::pair.982", ptr %20, i64 1
  %23 = load ptr, ptr %9, align 8
  %24 = getelementptr inbounds [12 x i8], ptr %23, i64 0, i64 0
  call void @_ZN10cmAlphaNumC2EPKc(ptr noundef nonnull align 8 dereferenceable(56) %16, ptr noundef %24)
  call void @_ZZ8cmStrCatIRKNSt7__cxx1112basic_stringIcSt11char_traitsIcESaIcEEERA12_KcJS5_PS8_S7_EES5_OT_OT0_DpOT1_ENKUlRK10cmAlphaNumE_clB5cxx11ESL_(ptr dead_on_unwind writable sret(%"struct.std::pair.982") align 8 %22, ptr noundef nonnull align 1 dereferenceable(1) @_ZZ8cmStrCatIRKNSt7__cxx1112basic_stringIcSt11char_traitsIcESaIcEEERA12_KcJS5_PS8_S7_EES5_OT_OT0_DpOT1_E8makePair, ptr noundef nonnull align 8 dereferenceable(56) %16)
  %25 = getelementptr inbounds %"struct.std::pair.982", ptr %22, i64 1
  %26 = load ptr, ptr %10, align 8
  call void @_ZN10cmAlphaNumC2EONSt7__cxx1112basic_stringIcSt11char_traitsIcESaIcEEE(ptr noundef nonnull align 8 dereferenceable(56) %17, ptr noundef nonnull align 8 dereferenceable(32) %26)
  call void @_ZZ8cmStrCatIRKNSt7__cxx1112basic_stringIcSt11char_traitsIcESaIcEEERA12_KcJS5_PS8_S7_EES5_OT_OT0_DpOT1_ENKUlRK10cmAlphaNumE_clB5cxx11ESL_(ptr dead_on_unwind writable sret(%"struct.std::pair.982") align 8 %25, ptr noundef nonnull align 1 dereferenceable(1) @_ZZ8cmStrCatIRKNSt7__cxx1112basic_stringIcSt11char_traitsIcESaIcEEERA12_KcJS5_PS8_S7_EES5_OT_OT0_DpOT1_E8makePair, ptr noundef nonnull align 8 dereferenceable(56) %17)
  %27 = getelementptr inbounds %"struct.std::pair.982", ptr %25, i64 1
  %28 = load ptr, ptr %11, align 8
  %29 = load ptr, ptr %28, align 8
  call void @_ZN10cmAlphaNumC2EPKc(ptr noundef nonnull align 8 dereferenceable(56) %18, ptr noundef %29)
  call void @_ZZ8cmStrCatIRKNSt7__cxx1112basic_stringIcSt11char_traitsIcESaIcEEERA12_KcJS5_PS8_S7_EES5_OT_OT0_DpOT1_ENKUlRK10cmAlphaNumE_clB5cxx11ESL_(ptr dead_on_unwind writable sret(%"struct.std::pair.982") align 8 %27, ptr noundef nonnull align 1 dereferenceable(1) @_ZZ8cmStrCatIRKNSt7__cxx1112basic_stringIcSt11char_traitsIcESaIcEEERA12_KcJS5_PS8_S7_EES5_OT_OT0_DpOT1_E8makePair, ptr noundef nonnull align 8 dereferenceable(56) %18)
  %30 = getelementptr inbounds %"struct.std::pair.982", ptr %27, i64 1
  %31 = load ptr, ptr %12, align 8
  call void @_ZN10cmAlphaNumC2ERKNSt7__cxx1112basic_stringIcSt11char_traitsIcESaIcEEE(ptr noundef nonnull align 8 dereferenceable(56) %19, ptr noundef nonnull align 8 dereferenceable(32) %31)
  call void @_ZZ8cmStrCatIRKNSt7__cxx1112basic_stringIcSt11char_traitsIcESaIcEEERA12_KcJS5_PS8_S7_EES5_OT_OT0_DpOT1_ENKUlRK10cmAlphaNumE_clB5cxx11ESL_(ptr dead_on_unwind writable sret(%"struct.std::pair.982") align 8 %30, ptr noundef nonnull align 1 dereferenceable(1) @_ZZ8cmStrCatIRKNSt7__cxx1112basic_stringIcSt11char_traitsIcESaIcEEERA12_KcJS5_PS8_S7_EES5_OT_OT0_DpOT1_E8makePair, ptr noundef nonnull align 8 dereferenceable(56) %19)
  %32 = getelementptr inbounds %"class.std::initializer_list.981", ptr %13, i32 0, i32 0
  %33 = getelementptr inbounds [5 x %"struct.std::pair.982"], ptr %14, i64 0, i64 0
  store ptr %33, ptr %32, align 8
  %34 = getelementptr inbounds %"class.std::initializer_list.981", ptr %13, i32 0, i32 1
  store i64 5, ptr %34, align 8
  %35 = getelementptr inbounds { ptr, i64 }, ptr %13, i32 0, i32 0
  %36 = load ptr, ptr %35, align 8
  %37 = getelementptr inbounds { ptr, i64 }, ptr %13, i32 0, i32 1
  %38 = load i64, ptr %37, align 8
  call void @_Z10cmCatViewsSt16initializer_listISt4pairISt17basic_string_viewIcSt11char_traitsIcEEPNSt7__cxx1112basic_stringIcS3_SaIcEEEEE(ptr dead_on_unwind writable sret(%"class.std::__cxx11::basic_string") align 8 %0, ptr %36, i64 %38)
  ret void
}

; Function Attrs: mustprogress uwtable
define dso_local void @_ZNK22cmNinjaTargetGenerator20LanguageCompilerRuleERKNSt7__cxx1112basic_stringIcSt11char_traitsIcESaIcEEES7_NS_12WithScanningE(ptr dead_on_unwind noalias writable sret(%"class.std::__cxx11::basic_string") align 8 %0, ptr noundef nonnull align 8 dereferenceable(240) %1, ptr noundef nonnull align 8 dereferenceable(32) %2, ptr noundef nonnull align 8 dereferenceable(32) %3, i32 noundef %4) #4 align 2 personality ptr @__gxx_personality_v0 {
  %6 = alloca ptr, align 8
  %7 = alloca ptr, align 8
  %8 = alloca ptr, align 8
  %9 = alloca ptr, align 8
  %10 = alloca i32, align 4
  %11 = alloca %"class.std::__cxx11::basic_string", align 8
  %12 = alloca ptr, align 8
  %13 = alloca ptr, align 8
  %14 = alloca i32, align 4
  store ptr %0, ptr %6, align 8
  store ptr %1, ptr %7, align 8
  store ptr %2, ptr %8, align 8
  store ptr %3, ptr %9, align 8
  store i32 %4, ptr %10, align 4
  %15 = load ptr, ptr %7, align 8
  %16 = load ptr, ptr %8, align 8
  %17 = getelementptr inbounds %class.cmCommonTargetGenerator, ptr %15, i32 0, i32 1
  %18 = load ptr, ptr %17, align 8
  %19 = call noundef nonnull align 8 dereferenceable(32) ptr @_ZNK17cmGeneratorTarget7GetNameB5cxx11Ev(ptr noundef nonnull align 8 dereferenceable(2728) %18)
  call void @_ZN22cmGlobalNinjaGenerator14EncodeRuleNameERKNSt7__cxx1112basic_stringIcSt11char_traitsIcESaIcEEE(ptr dead_on_unwind writable sret(%"class.std::__cxx11::basic_string") align 8 %11, ptr noundef nonnull align 8 dereferenceable(32) %19)
  %20 = load i32, ptr %10, align 4
  %21 = icmp eq i32 %20, 1
  %22 = select i1 %21, ptr @.str.2, ptr @.str.3
  store ptr %22, ptr %12, align 8
  %23 = load ptr, ptr %9, align 8
  invoke void @_Z8cmStrCatIRKNSt7__cxx1112basic_stringIcSt11char_traitsIcESaIcEEERA12_KcJS5_PS8_S7_EES5_OT_OT0_DpOT1_(ptr dead_on_unwind writable sret(%"class.std::__cxx11::basic_string") align 8 %0, ptr noundef nonnull align 8 dereferenceable(32) %16, ptr noundef nonnull align 1 dereferenceable(12) @.str, ptr noundef nonnull align 8 dereferenceable(32) %11, ptr noundef nonnull align 8 dereferenceable(8) %12, ptr noundef nonnull align 8 dereferenceable(32) %23)
          to label %24 unwind label %25

24:                                               ; preds = %5
  call void @_ZNSt7__cxx1112basic_stringIcSt11char_traitsIcESaIcEED1Ev(ptr noundef nonnull align 8 dereferenceable(32) %11) #3
  ret void

25:                                               ; preds = %5
  %26 = landingpad { ptr, i32 }
          cleanup
  %27 = extractvalue { ptr, i32 } %26, 0
  store ptr %27, ptr %13, align 8
  %28 = extractvalue { ptr, i32 } %26, 1
  store i32 %28, ptr %14, align 4
  call void @_ZNSt7__cxx1112basic_stringIcSt11char_traitsIcESaIcEED1Ev(ptr noundef nonnull align 8 dereferenceable(32) %11) #3
  br label %29

29:                                               ; preds = %25
  %30 = load ptr, ptr %13, align 8
  %31 = load i32, ptr %14, align 4
  %32 = insertvalue { ptr, i32 } poison, ptr %30, 0
  %33 = insertvalue { ptr, i32 } %32, i32 %31, 1
  resume { ptr, i32 } %33
}